(lp0
(lp1
S'PointLight 1.5 1 1 1 41.7699993896 1.95999999046 40.6799975586 0.03'
p2
aS'PointLight 1.5 1 1 1 42.0099993896 1.95999999046 40.4399975586 0.03'
p3
aS'PointLight 1.5 1 1 1 42.0099993896 1.95999999046 40.6799975586 0.03'
p4
aS'PointLight 1.5 1 1 1 41.7699993896 1.95999999046 40.4399975586 0.03'
p5
aS'PointLight 1.2 1 1 1 41.1637426974 2.16049405722 35.5244781362 0.03'
p6
aS'PointLight 1.2 1 1 1 41.1607684034 2.15948905722 35.3924361362 0.03'
p7
aS'PointLight 1.2 1 1 1 41.1634590874 2.16061305722 35.2611169162 0.03'
p8
aS'PointLight 1.2 1 1 1 41.1628176374 2.16005105722 35.1280741362 0.03'
p9
aS'PointLight 1.2 1 1 1 41.1604924704 2.15978205722 34.9975911362 0.03'
p10
aS'PointLight 1.5 1 1 1 38.9099987793 1.95999999046 35.4100009155 0.03'
p11
aS'PointLight 1.5 1 1 1 39.1499987793 1.95999999046 35.1700009155 0.03'
p12
aS'PointLight 1.5 1 1 1 39.1499987793 1.95999999046 35.4100009155 0.03'
p13
aS'PointLight 1.5 1 1 1 38.9099987793 1.95999999046 35.1700009155 0.03'
p14
aS'SpotLight 3.0 1 1 1 44.73 2.43000006676 35.5499996948 0.04 0.0 0.0 -0.0 0.0 0.04'
p15
aS'SpotLight 3.0 1 1 1 44.73 2.43000006676 35.5899996948 0.04 0.0 0.0 0.0 0.0 -0.04'
p16
aS'SpotLight 3.0 1 1 1 44.73 2.43000006676 35.0499996948 0.04 0.0 0.0 -0.0 0.0 0.04'
p17
aS'SpotLight 3.0 1 1 1 44.73 2.43000006676 35.0899996948 0.04 0.0 0.0 0.0 0.0 -0.04'
p18
aS'PointLight 1.5 1 1 1 48.4399975586 1.95999999046 35.1600009155 0.03'
p19
aS'PointLight 1.5 1 1 1 48.6799975586 1.95999999046 34.9200009155 0.03'
p20
aS'PointLight 1.5 1 1 1 48.6799975586 1.95999999046 35.1600009155 0.03'
p21
aS'PointLight 1.5 1 1 1 48.4399975586 1.95999999046 34.9200009155 0.03'
p22
aS'PointLight 1.5 1 1 1 47.0499981689 1.95999999046 42.1999980164 0.03'
p23
aS'PointLight 1.5 1 1 1 47.2899981689 1.95999999046 41.9599980164 0.03'
p24
aS'PointLight 1.5 1 1 1 47.2899981689 1.95999999046 42.1999980164 0.03'
p25
aS'PointLight 1.5 1 1 1 47.0499981689 1.95999999046 41.9599980164 0.03'
p26
aS'PointLight 1.5 1 1 1 47.0299977112 1.95999999046 38.8900004578 0.03'
p27
aS'PointLight 1.5 1 1 1 47.2699977112 1.95999999046 38.6500004578 0.03'
p28
aS'PointLight 1.5 1 1 1 47.2699977112 1.95999999046 38.8900004578 0.03'
p29
aS'PointLight 1.5 1 1 1 47.0299977112 1.95999999046 38.6500004578 0.03'
p30
aS'PointLight 1.5 1 1 1 50.6699971008 1.95999999046 40.5099993896 0.03'
p31
aS'PointLight 1.5 1 1 1 50.9099971008 1.95999999046 40.2699993896 0.03'
p32
aS'PointLight 1.5 1 1 1 50.9099971008 1.95999999046 40.5099993896 0.03'
p33
aS'PointLight 1.5 1 1 1 50.6699971008 1.95999999046 40.2699993896 0.03'
p34
aS'SpotLight 6.0 1 1 1 52.5008733774 2.10455260674 35.6876522123 -0.0168710493562 0.0 0.0362679982025 -0.0248787572831 -0.0291051944153 -0.0115730330552'
p35
aS'SpotLight 6.0 1 1 1 52.2240023281 2.07544741233 35.6760791792 0.0168710493562 0.0 0.0362679982025 -0.0248787572831 0.0291051944153 0.0115730330552'
p36
aS'SpotLight 6.0 1 1 1 52.2439189897 2.07544741233 35.4440035488 -0.0362679982025 0.0 0.0168710493562 -0.0115730330552 0.0291051944153 -0.0248787572831'
p37
aS'SpotLight 6.0 1 1 1 52.4676509915 2.10455260674 35.4191247915 0.0362679982025 0.0 0.0168710493562 -0.0115730330552 -0.0291051944153 0.0248787572831'
p38
aS'PointLight 6.0 1 1 1 41.7000007629 0.49999999702 23.6000003815 0.03'
p39
aS'PointLight 6.0 1 1 1 45.0999984741 0.49999999702 23.9200000763 0.03'
p40
aS'PointLight 6.0 1 1 1 38.3799972534 0.49999999702 26.2999992371 0.03'
p41
aS'PointLight 6.0 1 1 1 38.5099983215 0.49999999702 29.7999992371 0.03'
p42
aS'PointLight 6.0 1 1 1 41.4799995422 0.49999999702 32.9099998474 0.03'
p43
aS'PointLight 6.0 1 1 1 47.2099990845 0.49999999702 32.9500007629 0.03'
p44
aS'PointLight 6.0 1 1 1 49.0299987793 0.49999999702 25.8299999237 0.03'
p45
aS'PointLight 1.5 1 1 1 33.88 1.95999999046 34.0799990845 0.03'
p46
aS'PointLight 1.5 1 1 1 34.12 1.95999999046 33.8399990845 0.03'
p47
aS'PointLight 1.5 1 1 1 34.12 1.95999999046 34.0799990845 0.03'
p48
aS'PointLight 1.5 1 1 1 33.88 1.95999999046 33.8399990845 0.03'
p49
aS'SpotLight 6.0 1 1 1 32.3295263052 2.09056331459 39.0061081993 0.04 0.0 0.0 -0.0 0.0 0.04'
p50
aS'SpotLight 6.0 1 1 1 31.9905963052 2.09070387959 39.0148940693 0.04 0.0 0.0 -0.0 0.0 0.04'
p51
aS'SpotLight 6.0 1 1 1 35.7195256948 2.09056331459 39.0961083519 0.04 0.0 0.0 -0.0 0.0 0.04'
p52
aS'SpotLight 6.0 1 1 1 35.3805956948 2.09070387959 39.1048942219 0.04 0.0 0.0 -0.0 0.0 0.04'
p53
aS'SpotLight 6.0 1 1 1 35.8095258474 2.09056331459 42.4861077415 0.04 0.0 0.0 -0.0 0.0 0.04'
p54
aS'SpotLight 6.0 1 1 1 35.4705958474 2.09070387959 42.4948936115 0.04 0.0 0.0 -0.0 0.0 0.04'
p55
aS'SpotLight 6.0 1 1 1 32.4095281362 2.09056331459 42.4261101829 0.04 0.0 0.0 -0.0 0.0 0.04'
p56
aS'SpotLight 6.0 1 1 1 32.0705981362 2.09070387959 42.4348960529 0.04 0.0 0.0 -0.0 0.0 0.04'
p57
aS'PointLight 1.2 1 1 1 49.0962556241 2.16049405722 26.9155243052 0.03'
p58
aS'PointLight 1.2 1 1 1 49.0992299181 2.15948905722 27.0475663052 0.03'
p59
aS'PointLight 1.2 1 1 1 49.0965392341 2.16061305722 27.1788855252 0.03'
p60
aS'PointLight 1.2 1 1 1 49.0971806841 2.16005105722 27.3119283052 0.03'
p61
aS'PointLight 1.2 1 1 1 49.0995058511 2.15978205722 27.4424113052 0.03'
p62
aS'SpotLight 6.0 1 1 1 48.7795232534 2.09056331459 24.4961079704 0.04 0.0 0.0 -0.0 0.0 0.04'
p63
aS'SpotLight 6.0 1 1 1 48.4405932534 2.09070387959 24.5048938404 0.04 0.0 0.0 -0.0 0.0 0.04'
p64
aS'SpotLight 6.0 1 1 1 40.4069805365 2.09493118506 44.036398654 -0.0282842712475 0.0 0.0282842712475 -0.0256822948548 -0.0167582654825 -0.0256822948548'
p65
aS'SpotLight 6.0 1 1 1 38.1269817572 2.09493118506 44.036398654 -0.0282842712475 0.0 0.0282842712475 -0.0256822948548 -0.0167582654825 -0.0256822948548'
p66
aS'PointLight 6.0 1 1 1 40.8112087486 2.05003395232 32.9756564119 0.03'
p67
aS'PointLight 6.0 1 1 1 37.6512089012 2.05003395232 32.9656542757 0.03'
p68
aS'SpotLight 3.0 1 1 1 50.0599980164 1.24399605914 33.3799977112 0.04 0.0 0.0 -0.0 0.0 0.04'
p69
aS'SpotLight 3.0 1 1 1 50.0599980164 1.24399605914 33.4199977112 0.04 0.0 0.0 0.0 0.0 -0.04'
p70
aS'SpotLight 3.0 1 1 1 52.9299969482 0.917561983311 41.8799977112 0.04 0.0 0.0 -0.0 0.0 0.04'
p71
aS'SpotLight 3.0 1 1 1 52.9299969482 0.917561983311 41.9199977112 0.04 0.0 0.0 0.0 0.0 -0.04'
p72
aa(lp73
cnumpy.core.multiarray
_reconstruct
p74
(cnumpy
ndarray
p75
(I0
tp76
S'b'
p77
tp78
Rp79
(I1
(I2
tp80
cnumpy
dtype
p81
(S'f8'
p82
I0
I1
tp83
Rp84
(I3
S'<'
p85
NNNI-1
I-1
I0
tp86
bI00
S'\x8f\xc2\xf5(\nWD@q=\nW\x8f\xe2D@'
p87
tp88
bag74
(g75
(I0
tp89
g77
tp90
Rp91
(I1
(I2
tp92
g84
I00
S'q=\n\xd7Q8D@\x8f\xc2\xf5\xa8G\x01E@'
p93
tp94
bag74
(g75
(I0
tp95
g77
tp96
Rp97
(I1
(I2
tp98
g84
I00
S'\x8f\xc2\xf5(\nWD@\x8f\xc2\xf5\xa8G\x01E@'
p99
tp100
bag74
(g75
(I0
tp101
g77
tp102
Rp103
(I1
(I2
tp104
g84
I00
S'q=\n\xd7Q8D@q=\nW\x8f\xe2D@'
p105
tp106
bag74
(g75
(I0
tp107
g77
tp108
Rp109
(I1
(I2
tp110
g84
I00
S'\xd8I}\x19"\xc3A@\x03,M\x85\xf5\x94D@'
p111
tp112
bag74
(g75
(I0
tp113
g77
tp114
Rp115
(I1
(I2
tp116
g84
I00
S'rp\xe9X;\xb2A@Lq\x1d\x0f\x94\x94D@'
p117
tp118
bag74
(g75
(I0
tp119
g77
tp120
Rp121
(I1
(I2
tp122
g84
I00
S'5\xd2sGl\xa1A@\xa2U5:\xec\x94D@'
p123
tp124
bag74
(g75
(I0
tp125
g77
tp126
Rp127
(I1
(I2
tp128
g84
I00
S'bI\xb9\xbbd\x90A@\xd1\xf2U5\xd7\x94D@'
p129
tp130
bag74
(g75
(I0
tp131
g77
tp132
Rp133
(I1
(I2
tp134
g84
I00
S'\xd6q\xfc\x10\xb1\x7fA@N\xd6k\x04\x8b\x94D@'
p135
tp136
bag74
(g75
(I0
tp137
g77
tp138
Rp139
(I1
(I2
tp140
g84
I00
S'\x8f\xc2\xf5\xe8z\xb4A@q=\n\xd7ztC@'
p141
tp142
bag74
(g75
(I0
tp143
g77
tp144
Rp145
(I1
(I2
tp146
g84
I00
S'q=\n\x97\xc2\x95A@\x8f\xc2\xf5(3\x93C@'
p147
tp148
bag74
(g75
(I0
tp149
g77
tp150
Rp151
(I1
(I2
tp152
g84
I00
S'\x8f\xc2\xf5\xe8z\xb4A@\x8f\xc2\xf5(3\x93C@'
p153
tp154
bag74
(g75
(I0
tp155
g77
tp156
Rp157
(I1
(I2
tp158
g84
I00
S'q=\n\x97\xc2\x95A@q=\n\xd7ztC@'
p159
tp160
bag74
(g75
(I0
tp161
g77
tp162
Rp163
(I1
(I2
tp164
g84
I00
S'=\n\xd7cf\xc6A@=\n\xd7\xa3p]F@'
p165
tp166
bag74
(g75
(I0
tp167
g77
tp168
Rp169
(I1
(I2
tp170
g84
I00
S'\xc3\xf5(\x1c\x85\xcbA@=\n\xd7\xa3p]F@'
p171
tp172
bag74
(g75
(I0
tp173
g77
tp174
Rp175
(I1
(I2
tp176
g84
I00
S'=\n\xd7cf\x86A@=\n\xd7\xa3p]F@'
p177
tp178
bag74
(g75
(I0
tp179
g77
tp180
Rp181
(I1
(I2
tp182
g84
I00
S'\xc3\xf5(\x1c\x85\x8bA@=\n\xd7\xa3p]F@'
p183
tp184
bag74
(g75
(I0
tp185
g77
tp186
Rp187
(I1
(I2
tp188
g84
I00
S'\x8f\xc2\xf5\xe8z\x94A@q=\n\xd7Q8H@'
p189
tp190
bag74
(g75
(I0
tp191
g77
tp192
Rp193
(I1
(I2
tp194
g84
I00
S'q=\n\x97\xc2uA@\x8f\xc2\xf5(\nWH@'
p195
tp196
bag74
(g75
(I0
tp197
g77
tp198
Rp199
(I1
(I2
tp200
g84
I00
S'\x8f\xc2\xf5\xe8z\x94A@\x8f\xc2\xf5(\nWH@'
p201
tp202
bag74
(g75
(I0
tp203
g77
tp204
Rp205
(I1
(I2
tp206
g84
I00
S'q=\n\x97\xc2uA@q=\n\xd7Q8H@'
p207
tp208
bag74
(g75
(I0
tp209
g77
tp210
Rp211
(I1
(I2
tp212
g84
I00
S'\x8f\xc2\xf5\x88\x99\x19E@q=\nWf\x86G@'
p213
tp214
bag74
(g75
(I0
tp215
g77
tp216
Rp217
(I1
(I2
tp218
g84
I00
S'q=\n7\xe1\xfaD@\x8f\xc2\xf5\xa8\x1e\xa5G@'
p219
tp220
bag74
(g75
(I0
tp221
g77
tp222
Rp223
(I1
(I2
tp224
g84
I00
S'\x8f\xc2\xf5\x88\x99\x19E@\x8f\xc2\xf5\xa8\x1e\xa5G@'
p225
tp226
bag74
(g75
(I0
tp227
g77
tp228
Rp229
(I1
(I2
tp230
g84
I00
S'q=\n7\xe1\xfaD@q=\nWf\x86G@'
p231
tp232
bag74
(g75
(I0
tp233
g77
tp234
Rp235
(I1
(I2
tp236
g84
I00
S'\x8f\xc2\xf5\x88\xebqC@q=\n\xf7\xd6\x83G@'
p237
tp238
bag74
(g75
(I0
tp239
g77
tp240
Rp241
(I1
(I2
tp242
g84
I00
S'q=\n73SC@\x8f\xc2\xf5H\x8f\xa2G@'
p243
tp244
bag74
(g75
(I0
tp245
g77
tp246
Rp247
(I1
(I2
tp248
g84
I00
S'\x8f\xc2\xf5\x88\xebqC@\x8f\xc2\xf5H\x8f\xa2G@'
p249
tp250
bag74
(g75
(I0
tp251
g77
tp252
Rp253
(I1
(I2
tp254
g84
I00
S'q=\n73SC@q=\n\xf7\xd6\x83G@'
p255
tp256
bag74
(g75
(I0
tp257
g77
tp258
Rp259
(I1
(I2
tp260
g84
I00
S'\x8f\xc2\xf5\xa8GAD@q=\nw\xc2UI@'
p261
tp262
bag74
(g75
(I0
tp263
g77
tp264
Rp265
(I1
(I2
tp266
g84
I00
S'q=\nW\x8f"D@\x8f\xc2\xf5\xc8ztI@'
p267
tp268
bag74
(g75
(I0
tp269
g77
tp270
Rp271
(I1
(I2
tp272
g84
I00
S'\x8f\xc2\xf5\xa8GAD@\x8f\xc2\xf5\xc8ztI@'
p273
tp274
bag74
(g75
(I0
tp275
g77
tp276
Rp277
(I1
(I2
tp278
g84
I00
S'q=\nW\x8f"D@q=\nw\xc2UI@'
p279
tp280
bag74
(g75
(I0
tp281
g77
tp282
Rp283
(I1
(I2
tp284
g84
I00
S'\xb1Q\xd9\xfc\x04\xd8A@\xc8\xc5k\x9e\x1c@J@'
p285
tp286
bag74
(g75
(I0
tp287
g77
tp288
Rp289
(I1
(I2
tp290
g84
I00
S'C\x136\xc3\x89\xd6A@\xee\xac\xb8\x1b\xac\x1cJ@'
p291
tp292
bag74
(g75
(I0
tp293
g77
tp294
Rp295
(I1
(I2
tp296
g84
I00
S'\xee\xac\xb8\x1b\xd5\xb8A@\xbd\xec\xc9\xbc8\x1fJ@'
p297
tp298
bag74
(g75
(I0
tp299
g77
tp300
Rp301
(I1
(I2
tp302
g84
I00
S'8:\x94\xe1\xa5\xb5A@\xb1Q\xd9\xfc\xdb;J@'
p303
tp304
bag74
(g75
(I0
tp305
g77
tp306
Rp307
(I1
(I2
tp308
g84
I00
S'\x00\x00\x00\xa0\x99\x997@\x00\x00\x00\xa0\x99\xd9D@'
p309
tp310
bag74
(g75
(I0
tp311
g77
tp312
Rp313
(I1
(I2
tp314
g84
I00
S'\x00\x00\x00 \x85\xeb7@\x00\x00\x00\xc0\xcc\x8cF@'
p315
tp316
bag74
(g75
(I0
tp317
g77
tp318
Rp319
(I1
(I2
tp320
g84
I00
S'\x00\x00\x00\xc0\xccL:@\x00\x00\x00\xc0\xa30C@'
p321
tp322
bag74
(g75
(I0
tp323
g77
tp324
Rp325
(I1
(I2
tp326
g84
I00
S'\x00\x00\x00\xc0\xcc\xcc=@\x00\x00\x00\xa0GAC@'
p327
tp328
bag74
(g75
(I0
tp329
g77
tp330
Rp331
(I1
(I2
tp332
g84
I00
S'\x00\x00\x00\xe0zt@@\x00\x00\x00\xa0p\xbdD@'
p333
tp334
bag74
(g75
(I0
tp335
g77
tp336
Rp337
(I1
(I2
tp338
g84
I00
S'\x00\x00\x00\xa0\x99y@@\x00\x00\x00@\xe1\x9aG@'
p339
tp340
bag74
(g75
(I0
tp341
g77
tp342
Rp343
(I1
(I2
tp344
g84
I00
S'\x00\x00\x00\xe0z\xd49@\x00\x00\x00\x00\xd7\x83H@'
p345
tp346
bag74
(g75
(I0
tp347
g77
tp348
Rp349
(I1
(I2
tp350
g84
I00
S'\x8f\xc2\xf5h=\nA@q=\n\xd7\xa3\xf0@@'
p351
tp352
bag74
(g75
(I0
tp353
g77
tp354
Rp355
(I1
(I2
tp356
g84
I00
S'q=\n\x17\x85\xeb@@\x8f\xc2\xf5(\\\x0fA@'
p357
tp358
bag74
(g75
(I0
tp359
g77
tp360
Rp361
(I1
(I2
tp362
g84
I00
S'\x8f\xc2\xf5h=\nA@\x8f\xc2\xf5(\\\x0fA@'
p363
tp364
bag74
(g75
(I0
tp365
g77
tp366
Rp367
(I1
(I2
tp368
g84
I00
S'q=\n\x17\x85\xeb@@q=\n\xd7\xa3\xf0@@'
p369
tp370
bag74
(g75
(I0
tp371
g77
tp372
Rp373
(I1
(I2
tp374
g84
I00
S"\xd8\x1bJ'\xc8\x80C@j\xf3\xff\xea-*@@"
p375
tp376
bag74
(g75
(I0
tp377
g77
tp378
Rp379
(I1
(I2
tp380
g84
I00
S'hD\x82\x0c\xe8\x81C@\xb7D.\xb8\x97\xfd?@'
p381
tp382
bag74
(g75
(I0
tp383
g77
tp384
Rp385
(I1
(I2
tp386
g84
I00
S'\xd8\x1bJGM\x8cC@j\xf3\xffj\x19\xdcA@'
p387
tp388
bag74
(g75
(I0
tp389
g77
tp390
Rp391
(I1
(I2
tp392
g84
I00
S'hD\x82,m\x8dC@["\x17\\\xb7\xb0A@'
p393
tp394
bag74
(g75
(I0
tp395
g77
tp396
Rp397
(I1
(I2
tp398
g84
I00
S'\xd8\x1bJ\xc78>E@j\xf3\xff\x8a\x9e\xe7A@'
p399
tp400
bag74
(g75
(I0
tp401
g77
tp402
Rp403
(I1
(I2
tp404
g84
I00
S'hD\x82\xacX?E@["\x17|<\xbcA@'
p405
tp406
bag74
(g75
(I0
tp407
g77
tp408
Rp409
(I1
(I2
tp410
g84
I00
S'\xd8\x1bJ\xc7\x8a6E@j\xf3\xffjk4@@'
p411
tp412
bag74
(g75
(I0
tp413
g77
tp414
Rp415
(I1
(I2
tp416
g84
I00
S'hD\x82\xac\xaa7E@["\x17\\\t\t@@'
p417
tp418
bag74
(g75
(I0
tp419
g77
tp420
Rp421
(I1
(I2
tp422
g84
I00
S'Ql\x05\xcd_\xea:@\xfd\xd3\xb2\x1aR\x8cH@'
p423
tp424
bag74
(g75
(I0
tp425
g77
tp426
Rp427
(I1
(I2
tp428
g84
I00
S'\x1d\x1f-N-\x0c;@\xb4\x8e\xe2\x90\xb3\x8cH@'
p429
tp430
bag74
(g75
(I0
tp431
g77
tp432
Rp433
(I1
(I2
tp434
g84
I00
S'\x96[\x18q\xcb-;@^\xaa\xcae[\x8cH@'
p435
tp436
bag74
(g75
(I0
tp437
g77
tp438
Rp439
(I1
(I2
tp440
g84
I00
S';m\x8d\x88\xdaO;@/\r\xaajp\x8cH@'
p441
tp442
bag74
(g75
(I0
tp443
g77
tp444
Rp445
(I1
(I2
tp446
g84
I00
S'T\x1c\x07\xdeAq;@\xb2)\x94\x9b\xbc\x8cH@'
p447
tp448
bag74
(g75
(I0
tp449
g77
tp450
Rp451
(I1
(I2
tp452
g84
I00
S'\xb07\x94\xee\x00\x7f8@j\xf3\xffj\xc7cH@'
p453
tp454
bag74
(g75
(I0
tp455
g77
tp456
Rp457
(I1
(I2
tp458
g84
I00
S'\xd1\x88\x04\xb9@\x818@["\x17\\e8H@'
p459
tp460
bag74
(g75
(I0
tp461
g77
tp462
Rp463
(I1
(I2
tp464
g84
I00
S'0\\\n\xb6\xa8\x04F@%\x1f/\xf0\x174D@'
p465
tp466
bag74
(g75
(I0
tp467
g77
tp468
Rp469
(I1
(I2
tp470
g84
I00
S'0\\\n\xb6\xa8\x04F@%\x1f/\xf0@\x10C@'
p471
tp472
bag74
(g75
(I0
tp473
g77
tp474
Rp475
(I1
(I2
tp476
g84
I00
S'\x8b\x99.O\xe2|@@f\xbb2\xb0\xd5gD@'
p477
tp478
bag74
(g75
(I0
tp479
g77
tp480
Rp481
(I1
(I2
tp482
g84
I00
S'\x8b\x99.\x8f\x9a{@@f\xbb2\xd0Z\xd3B@'
p483
tp484
bag74
(g75
(I0
tp485
g77
tp486
Rp487
(I1
(I2
tp488
g84
I00
S'=\n\xd7\xc3\xa3\xb0@@=\n\xd7\x03\xae\x07I@'
p489
tp490
bag74
(g75
(I0
tp491
g77
tp492
Rp493
(I1
(I2
tp494
g84
I00
S'\xc3\xf5(|\xc2\xb5@@=\n\xd7\x03\xae\x07I@'
p495
tp496
bag74
(g75
(I0
tp497
g77
tp498
Rp499
(I1
(I2
tp500
g84
I00
S'=\n\xd7\xc3\xa3\xf0D@=\n\xd7#\nwJ@'
p501
tp502
bag74
(g75
(I0
tp503
g77
tp504
Rp505
(I1
(I2
tp506
g84
I00
S'\xc3\xf5(|\xc2\xf5D@=\n\xd7#\nwJ@'
p507
tp508
baa.