(lp0
(lp1
S'SpotLight 3.0 1 1 1 33.3199157629 2.35503100954 37.202567406 0.04 0.0 0.0 -0.0 0.0 0.04'
p2
aS'SpotLight 3.0 1 1 1 33.3199157629 2.35503100954 37.242567406 0.04 0.0 0.0 0.0 0.0 -0.04'
p3
aS'SpotLight 3.0 1 1 1 33.0293607629 2.35437800954 37.198055406 0.04 0.0 0.0 -0.0 0.0 0.04'
p4
aS'SpotLight 3.0 1 1 1 33.0293607629 2.35437800954 37.238055406 0.04 0.0 0.0 0.0 0.0 -0.04'
p5
aS'SpotLight 3.0 1 1 1 32.8923037629 2.35578600954 36.948865006 0.04 0.0 0.0 -0.0 0.0 0.04'
p6
aS'SpotLight 3.0 1 1 1 32.8923037629 2.35578600954 36.988865006 0.04 0.0 0.0 0.0 0.0 -0.04'
p7
aS'SpotLight 3.0 1 1 1 33.0340777629 2.35537200954 36.703805406 0.04 0.0 0.0 -0.0 0.0 0.04'
p8
aS'SpotLight 3.0 1 1 1 33.0340777629 2.35537200954 36.743805406 0.04 0.0 0.0 0.0 0.0 -0.04'
p9
aS'SpotLight 3.0 1 1 1 33.3213577629 2.35578700954 36.704091406 0.04 0.0 0.0 -0.0 0.0 0.04'
p10
aS'SpotLight 3.0 1 1 1 33.3213577629 2.35578700954 36.744091406 0.04 0.0 0.0 0.0 0.0 -0.04'
p11
aS'SpotLight 3.0 1 1 1 33.4648797629 2.35558600954 36.946960676 0.04 0.0 0.0 -0.0 0.0 0.04'
p12
aS'SpotLight 3.0 1 1 1 33.4648797629 2.35558600954 36.986960676 0.04 0.0 0.0 0.0 0.0 -0.04'
p13
aS'SpotLight 3.0 1 1 1 33.3899154578 2.35503100954 40.6625703052 0.04 0.0 0.0 -0.0 0.0 0.04'
p14
aS'SpotLight 3.0 1 1 1 33.3899154578 2.35503100954 40.7025703052 0.04 0.0 0.0 0.0 0.0 -0.04'
p15
aS'SpotLight 3.0 1 1 1 33.0993604578 2.35437800954 40.6580583052 0.04 0.0 0.0 -0.0 0.0 0.04'
p16
aS'SpotLight 3.0 1 1 1 33.0993604578 2.35437800954 40.6980583052 0.04 0.0 0.0 0.0 0.0 -0.04'
p17
aS'SpotLight 3.0 1 1 1 32.9623034578 2.35578600954 40.4088679052 0.04 0.0 0.0 -0.0 0.0 0.04'
p18
aS'SpotLight 3.0 1 1 1 32.9623034578 2.35578600954 40.4488679052 0.04 0.0 0.0 0.0 0.0 -0.04'
p19
aS'SpotLight 3.0 1 1 1 33.1040774578 2.35537200954 40.1638083052 0.04 0.0 0.0 -0.0 0.0 0.04'
p20
aS'SpotLight 3.0 1 1 1 33.1040774578 2.35537200954 40.2038083052 0.04 0.0 0.0 0.0 0.0 -0.04'
p21
aS'SpotLight 3.0 1 1 1 33.3913574578 2.35578700954 40.1640943052 0.04 0.0 0.0 -0.0 0.0 0.04'
p22
aS'SpotLight 3.0 1 1 1 33.3913574578 2.35578700954 40.2040943052 0.04 0.0 0.0 0.0 0.0 -0.04'
p23
aS'SpotLight 3.0 1 1 1 33.5348794578 2.35558600954 40.4069635752 0.04 0.0 0.0 -0.0 0.0 0.04'
p24
aS'SpotLight 3.0 1 1 1 33.5348794578 2.35558600954 40.4469635752 0.04 0.0 0.0 0.0 0.0 -0.04'
p25
aS'PointLight 1.5 1 1 1 36.13 2.10999999046 42.2399989319 0.02'
p26
aS'PointLight 1.5 1 1 1 36.37 2.10999999046 41.9999989319 0.02'
p27
aS'PointLight 1.5 1 1 1 36.37 2.10999999046 42.2399989319 0.02'
p28
aS'PointLight 1.5 1 1 1 36.13 2.10999999046 41.9999989319 0.02'
p29
aS'SpotLight 3.0 1 1 1 37.7799148474 2.35503100954 36.4425690845 0.04 0.0 0.0 -0.0 0.0 0.04'
p30
aS'SpotLight 3.0 1 1 1 37.7799148474 2.35503100954 36.4825690845 0.04 0.0 0.0 0.0 0.0 -0.04'
p31
aS'SpotLight 3.0 1 1 1 37.4893598474 2.35437800954 36.4380570845 0.04 0.0 0.0 -0.0 0.0 0.04'
p32
aS'SpotLight 3.0 1 1 1 37.4893598474 2.35437800954 36.4780570845 0.04 0.0 0.0 0.0 0.0 -0.04'
p33
aS'SpotLight 3.0 1 1 1 37.3523028474 2.35578600954 36.1888666845 0.04 0.0 0.0 -0.0 0.0 0.04'
p34
aS'SpotLight 3.0 1 1 1 37.3523028474 2.35578600954 36.2288666845 0.04 0.0 0.0 0.0 0.0 -0.04'
p35
aS'SpotLight 3.0 1 1 1 37.4940768474 2.35537200954 35.9438070845 0.04 0.0 0.0 -0.0 0.0 0.04'
p36
aS'SpotLight 3.0 1 1 1 37.4940768474 2.35537200954 35.9838070845 0.04 0.0 0.0 0.0 0.0 -0.04'
p37
aS'SpotLight 3.0 1 1 1 37.7813568474 2.35578700954 35.9440930845 0.04 0.0 0.0 -0.0 0.0 0.04'
p38
aS'SpotLight 3.0 1 1 1 37.7813568474 2.35578700954 35.9840930845 0.04 0.0 0.0 0.0 0.0 -0.04'
p39
aS'SpotLight 3.0 1 1 1 37.9248788474 2.35558600954 36.1869623545 0.04 0.0 0.0 -0.0 0.0 0.04'
p40
aS'SpotLight 3.0 1 1 1 37.9248788474 2.35558600954 36.2269623545 0.04 0.0 0.0 0.0 0.0 -0.04'
p41
aS'SpotLight 3.0 1 1 1 37.6699142371 2.35503100954 38.7725709155 0.04 0.0 0.0 -0.0 0.0 0.04'
p42
aS'SpotLight 3.0 1 1 1 37.6699142371 2.35503100954 38.8125709155 0.04 0.0 0.0 0.0 0.0 -0.04'
p43
aS'SpotLight 3.0 1 1 1 37.3793592371 2.35437800954 38.7680589155 0.04 0.0 0.0 -0.0 0.0 0.04'
p44
aS'SpotLight 3.0 1 1 1 37.3793592371 2.35437800954 38.8080589155 0.04 0.0 0.0 0.0 0.0 -0.04'
p45
aS'SpotLight 3.0 1 1 1 37.2423022371 2.35578600954 38.5188685155 0.04 0.0 0.0 -0.0 0.0 0.04'
p46
aS'SpotLight 3.0 1 1 1 37.2423022371 2.35578600954 38.5588685155 0.04 0.0 0.0 0.0 0.0 -0.04'
p47
aS'SpotLight 3.0 1 1 1 37.3840762371 2.35537200954 38.2738089155 0.04 0.0 0.0 -0.0 0.0 0.04'
p48
aS'SpotLight 3.0 1 1 1 37.3840762371 2.35537200954 38.3138089155 0.04 0.0 0.0 0.0 0.0 -0.04'
p49
aS'SpotLight 3.0 1 1 1 37.6713562371 2.35578700954 38.2740949155 0.04 0.0 0.0 -0.0 0.0 0.04'
p50
aS'SpotLight 3.0 1 1 1 37.6713562371 2.35578700954 38.3140949155 0.04 0.0 0.0 0.0 0.0 -0.04'
p51
aS'SpotLight 3.0 1 1 1 37.8148782371 2.35558600954 38.5169641855 0.04 0.0 0.0 -0.0 0.0 0.04'
p52
aS'SpotLight 3.0 1 1 1 37.8148782371 2.35558600954 38.5569641855 0.04 0.0 0.0 0.0 0.0 -0.04'
p53
aS'PointLight 1.5 1 1 1 37.9999989319 2.10999999046 42.2100001526 0.02'
p54
aS'PointLight 1.5 1 1 1 38.2399989319 2.10999999046 41.9700001526 0.02'
p55
aS'PointLight 1.5 1 1 1 38.2399989319 2.10999999046 42.2100001526 0.02'
p56
aS'PointLight 1.5 1 1 1 37.9999989319 2.10999999046 41.9700001526 0.02'
p57
aS'SpotLight 2.0 1 1 1 40.3606513325 2.38735759249 41.8403592872 -0.0382755278467 0.0 0.0116182601131 -0.0108236112109 -0.0145390514631 -0.035657613814'
p58
aS'SpotLight 2.0 1 1 1 39.8539069367 2.25300198659 41.6771242826 0.02810703472 0.0 0.0284604040598 -0.022803382251 0.0239341603398 0.0225202514805'
p59
aS'SpotLight 2.0 1 1 1 39.7312171135 2.37102810515 41.2357534736 -0.0190836156509 0.0 0.035154169222 -0.0299230853728 0.020993923224 -0.0162438957592'
p60
aS'SpotLight 2.0 1 1 1 40.0649746565 2.34247105826 40.8893223936 -0.0318841314613 0.0 0.0241537194022 -0.0217516556858 0.0173900169917 -0.0287132858439'
p61
aS'SpotLight 2.0 1 1 1 40.5191516928 2.20103328836 41.0939604751 0.00523917443283 0.0 0.0396554038091 -0.0388810341813 -0.00786624321405 0.0051368666219'
p62
aS'SpotLight 2.0 1 1 1 40.7189841597 2.32875892505 41.3527675361 1.78305652375e-05 0.0 0.0399999960259 -0.0371326240909 -0.0148717165835 1.65523935519e-05'
p63
aS'PointLight 6.0 1 1 1 39.6499977112 2.33000001907 42.6599998474 0.02'
p64
aS'SpotLight 3.0 1 1 1 42.2299156104 2.35503100954 39.0825722888 0.04 0.0 0.0 -0.0 0.0 0.04'
p65
aS'SpotLight 3.0 1 1 1 42.2299156104 2.35503100954 39.1225722888 0.04 0.0 0.0 0.0 0.0 -0.04'
p66
aS'SpotLight 3.0 1 1 1 41.9393606104 2.35437800954 39.0780602888 0.04 0.0 0.0 -0.0 0.0 0.04'
p67
aS'SpotLight 3.0 1 1 1 41.9393606104 2.35437800954 39.1180602888 0.04 0.0 0.0 0.0 0.0 -0.04'
p68
aS'SpotLight 3.0 1 1 1 41.8023036104 2.35578600954 38.8288698888 0.04 0.0 0.0 -0.0 0.0 0.04'
p69
aS'SpotLight 3.0 1 1 1 41.8023036104 2.35578600954 38.8688698888 0.04 0.0 0.0 0.0 0.0 -0.04'
p70
aS'SpotLight 3.0 1 1 1 41.9440776104 2.35537200954 38.5838102888 0.04 0.0 0.0 -0.0 0.0 0.04'
p71
aS'SpotLight 3.0 1 1 1 41.9440776104 2.35537200954 38.6238102888 0.04 0.0 0.0 0.0 0.0 -0.04'
p72
aS'SpotLight 3.0 1 1 1 42.2313576104 2.35578700954 38.5840962888 0.04 0.0 0.0 -0.0 0.0 0.04'
p73
aS'SpotLight 3.0 1 1 1 42.2313576104 2.35578700954 38.6240962888 0.04 0.0 0.0 0.0 0.0 -0.04'
p74
aS'SpotLight 3.0 1 1 1 42.3748796104 2.35558600954 38.8269655588 0.04 0.0 0.0 -0.0 0.0 0.04'
p75
aS'SpotLight 3.0 1 1 1 42.3748796104 2.35558600954 38.8669655588 0.04 0.0 0.0 0.0 0.0 -0.04'
p76
aa(lp77
cnumpy.core.multiarray
_reconstruct
p78
(cnumpy
ndarray
p79
(I0
tp80
S'b'
p81
tp82
Rp83
(I1
(I2
tp84
cnumpy
dtype
p85
(S'f8'
p86
I0
I1
tp87
Rp88
(I3
S'<'
p89
NNNI-1
I-1
I0
tp90
bI00
S'\xee\x03\x90\xba\xed\x99B@a\xa6\xed\xff\xf2\xa8@@'
p91
tp92
bag78
(g79
(I0
tp93
g81
tp94
Rp95
(I1
(I2
tp96
g88
I00
S't\xef\xe1r\x0c\x9fB@a\xa6\xed\xff\xf2\xa8@@'
p97
tp98
bag78
(g79
(I0
tp99
g81
tp100
Rp101
(I1
(I2
tp102
g88
I00
S'\xab\xcb)\xe1Y\x99B@&N\xee\x17\xc2\x83@@'
p103
tp104
bag78
(g79
(I0
tp105
g81
tp106
Rp107
(I1
(I2
tp108
g88
I00
S'1\xb7{\x99x\x9eB@&N\xee\x17\xc2\x83@@'
p109
tp110
bag78
(g79
(I0
tp111
g81
tp112
Rp113
(I1
(I2
tp114
g88
I00
S'\x97\x8e\x94htyB@\x1a\xf6{\x027r@@'
p115
tp116
bag78
(g79
(I0
tp117
g81
tp118
Rp119
(I1
(I2
tp120
g88
I00
S'\x1dz\xe6 \x93~B@\x1a\xf6{\x027r@@'
p121
tp122
bag78
(g79
(I0
tp123
g81
tp124
Rp125
(I1
(I2
tp126
g88
I00
S'\x86\xc5\xa8K\x16ZB@B\xac\xfe\xa8\\\x84@@'
p127
tp128
bag78
(g79
(I0
tp129
g81
tp130
Rp131
(I1
(I2
tp132
g88
I00
S'\x0c\xb1\xfa\x035_B@B\xac\xfe\xa8\\\x84@@'
p133
tp134
bag78
(g79
(I0
tp135
g81
tp136
Rp137
(I1
(I2
tp138
g88
I00
S'L\x18\xcd\xaa\x1fZB@\x01\x12M@"\xa9@@'
p139
tp140
bag78
(g79
(I0
tp141
g81
tp142
Rp143
(I1
(I2
tp144
g88
I00
S'\xd2\x03\x1fc>_B@\x01\x12M@"\xa9@@'
p145
tp146
bag78
(g79
(I0
tp147
g81
tp148
Rp149
(I1
(I2
tp150
g88
I00
S'\x88\x05\xe7\x016yB@\xd62\x19.\x81\xbb@@'
p151
tp152
bag78
(g79
(I0
tp153
g81
tp154
Rp155
(I1
(I2
tp156
g88
I00
S'\x0e\xf18\xbaT~B@\xd62\x19.\x81\xbb@@'
p157
tp158
bag78
(g79
(I0
tp159
g81
tp160
Rp161
(I1
(I2
tp162
g88
I00
S'\xee\x03\x90\x1a\xcfTD@a\xa6\xed\xbf\xe8\xb1@@'
p163
tp164
bag78
(g79
(I0
tp165
g81
tp166
Rp167
(I1
(I2
tp168
g88
I00
S't\xef\xe1\xd2\xedYD@a\xa6\xed\xbf\xe8\xb1@@'
p169
tp170
bag78
(g79
(I0
tp171
g81
tp172
Rp173
(I1
(I2
tp174
g88
I00
S'\xab\xcb)A;TD@&N\xee\xd7\xb7\x8c@@'
p175
tp176
bag78
(g79
(I0
tp177
g81
tp178
Rp179
(I1
(I2
tp180
g88
I00
S'1\xb7{\xf9YYD@&N\xee\xd7\xb7\x8c@@'
p181
tp182
bag78
(g79
(I0
tp183
g81
tp184
Rp185
(I1
(I2
tp186
g88
I00
S'\x97\x8e\x94\xc8U4D@\x1a\xf6{\xc2,{@@'
p187
tp188
bag78
(g79
(I0
tp189
g81
tp190
Rp191
(I1
(I2
tp192
g88
I00
S'\x1dz\xe6\x80t9D@\x1a\xf6{\xc2,{@@'
p193
tp194
bag78
(g79
(I0
tp195
g81
tp196
Rp197
(I1
(I2
tp198
g88
I00
S'\x86\xc5\xa8\xab\xf7\x14D@B\xac\xfehR\x8d@@'
p199
tp200
bag78
(g79
(I0
tp201
g81
tp202
Rp203
(I1
(I2
tp204
g88
I00
S'\x0c\xb1\xfac\x16\x1aD@B\xac\xfehR\x8d@@'
p205
tp206
bag78
(g79
(I0
tp207
g81
tp208
Rp209
(I1
(I2
tp210
g88
I00
S'L\x18\xcd\n\x01\x15D@\x01\x12M\x00\x18\xb2@@'
p211
tp212
bag78
(g79
(I0
tp213
g81
tp214
Rp215
(I1
(I2
tp216
g88
I00
S'\xd2\x03\x1f\xc3\x1f\x1aD@\x01\x12M\x00\x18\xb2@@'
p217
tp218
bag78
(g79
(I0
tp219
g81
tp220
Rp221
(I1
(I2
tp222
g88
I00
S'\x88\x05\xe7a\x174D@\xd62\x19\xeev\xc4@@'
p223
tp224
bag78
(g79
(I0
tp225
g81
tp226
Rp227
(I1
(I2
tp228
g88
I00
S'\x0e\xf18\x1a69D@\xd62\x19\xeev\xc4@@'
p229
tp230
bag78
(g79
(I0
tp231
g81
tp232
Rp233
(I1
(I2
tp234
g88
I00
S'\x8f\xc2\xf5H\xb8\x1eE@q=\n\xd7\xa3\x10B@'
p235
tp236
bag78
(g79
(I0
tp237
g81
tp238
Rp239
(I1
(I2
tp240
g88
I00
S'q=\n\xf7\xff\xffD@\x8f\xc2\xf5(\\/B@'
p241
tp242
bag78
(g79
(I0
tp243
g81
tp244
Rp245
(I1
(I2
tp246
g88
I00
S'\x8f\xc2\xf5H\xb8\x1eE@\x8f\xc2\xf5(\\/B@'
p247
tp248
bag78
(g79
(I0
tp249
g81
tp250
Rp251
(I1
(I2
tp252
g88
I00
S'q=\n\xf7\xff\xffD@q=\n\xd7\xa3\x10B@'
p253
tp254
bag78
(g79
(I0
tp255
g81
tp256
Rp257
(I1
(I2
tp258
g88
I00
S'\xee\x03\x90\x1a\xa68B@a\xa6\xed?\xd4\xe3B@'
p259
tp260
bag78
(g79
(I0
tp261
g81
tp262
Rp263
(I1
(I2
tp264
g88
I00
S't\xef\xe1\xd2\xc4=B@a\xa6\xed?\xd4\xe3B@'
p265
tp266
bag78
(g79
(I0
tp267
g81
tp268
Rp269
(I1
(I2
tp270
g88
I00
S'\xab\xcb)A\x128B@&N\xeeW\xa3\xbeB@'
p271
tp272
bag78
(g79
(I0
tp273
g81
tp274
Rp275
(I1
(I2
tp276
g88
I00
S'1\xb7{\xf90=B@&N\xeeW\xa3\xbeB@'
p277
tp278
bag78
(g79
(I0
tp279
g81
tp280
Rp281
(I1
(I2
tp282
g88
I00
S'\x97\x8e\x94\xc8,\x18B@\x1a\xf6{B\x18\xadB@'
p283
tp284
bag78
(g79
(I0
tp285
g81
tp286
Rp287
(I1
(I2
tp288
g88
I00
S'\x1dz\xe6\x80K\x1dB@\x1a\xf6{B\x18\xadB@'
p289
tp290
bag78
(g79
(I0
tp291
g81
tp292
Rp293
(I1
(I2
tp294
g88
I00
S'\x86\xc5\xa8\xab\xce\xf8A@B\xac\xfe\xe8=\xbfB@'
p295
tp296
bag78
(g79
(I0
tp297
g81
tp298
Rp299
(I1
(I2
tp300
g88
I00
S'\x0c\xb1\xfac\xed\xfdA@B\xac\xfe\xe8=\xbfB@'
p301
tp302
bag78
(g79
(I0
tp303
g81
tp304
Rp305
(I1
(I2
tp306
g88
I00
S'L\x18\xcd\n\xd8\xf8A@\x01\x12M\x80\x03\xe4B@'
p307
tp308
bag78
(g79
(I0
tp309
g81
tp310
Rp311
(I1
(I2
tp312
g88
I00
S'\xd2\x03\x1f\xc3\xf6\xfdA@\x01\x12M\x80\x03\xe4B@'
p313
tp314
bag78
(g79
(I0
tp315
g81
tp316
Rp317
(I1
(I2
tp318
g88
I00
S'\x88\x05\xe7a\xee\x17B@\xd62\x19nb\xf6B@'
p319
tp320
bag78
(g79
(I0
tp321
g81
tp322
Rp323
(I1
(I2
tp324
g88
I00
S'\x0e\xf18\x1a\r\x1dB@\xd62\x19nb\xf6B@'
p325
tp326
bag78
(g79
(I0
tp327
g81
tp328
Rp329
(I1
(I2
tp330
g88
I00
S'\xee\x03\x90\x9a\xe3bC@a\xa6\xed\xbf\xbf\xd5B@'
p331
tp332
bag78
(g79
(I0
tp333
g81
tp334
Rp335
(I1
(I2
tp336
g88
I00
S't\xef\xe1R\x02hC@a\xa6\xed\xbf\xbf\xd5B@'
p337
tp338
bag78
(g79
(I0
tp339
g81
tp340
Rp341
(I1
(I2
tp342
g88
I00
S'\xab\xcb)\xc1ObC@&N\xee\xd7\x8e\xb0B@'
p343
tp344
bag78
(g79
(I0
tp345
g81
tp346
Rp347
(I1
(I2
tp348
g88
I00
S'1\xb7{yngC@&N\xee\xd7\x8e\xb0B@'
p349
tp350
bag78
(g79
(I0
tp351
g81
tp352
Rp353
(I1
(I2
tp354
g88
I00
S'\x97\x8e\x94HjBC@\x1a\xf6{\xc2\x03\x9fB@'
p355
tp356
bag78
(g79
(I0
tp357
g81
tp358
Rp359
(I1
(I2
tp360
g88
I00
S'\x1dz\xe6\x00\x89GC@\x1a\xf6{\xc2\x03\x9fB@'
p361
tp362
bag78
(g79
(I0
tp363
g81
tp364
Rp365
(I1
(I2
tp366
g88
I00
S'\x86\xc5\xa8+\x0c#C@B\xac\xfeh)\xb1B@'
p367
tp368
bag78
(g79
(I0
tp369
g81
tp370
Rp371
(I1
(I2
tp372
g88
I00
S'\x0c\xb1\xfa\xe3*(C@B\xac\xfeh)\xb1B@'
p373
tp374
bag78
(g79
(I0
tp375
g81
tp376
Rp377
(I1
(I2
tp378
g88
I00
S'L\x18\xcd\x8a\x15#C@\x01\x12M\x00\xef\xd5B@'
p379
tp380
bag78
(g79
(I0
tp381
g81
tp382
Rp383
(I1
(I2
tp384
g88
I00
S'\xd2\x03\x1fC4(C@\x01\x12M\x00\xef\xd5B@'
p385
tp386
bag78
(g79
(I0
tp387
g81
tp388
Rp389
(I1
(I2
tp390
g88
I00
S'\x88\x05\xe7\xe1+BC@\xd62\x19\xeeM\xe8B@'
p391
tp392
bag78
(g79
(I0
tp393
g81
tp394
Rp395
(I1
(I2
tp396
g88
I00
S'\x0e\xf18\x9aJGC@\xd62\x19\xeeM\xe8B@'
p397
tp398
bag78
(g79
(I0
tp399
g81
tp400
Rp401
(I1
(I2
tp402
g88
I00
S'\x8f\xc2\xf5H\xe1\x1aE@q=\n\xf7\xff\xffB@'
p403
tp404
bag78
(g79
(I0
tp405
g81
tp406
Rp407
(I1
(I2
tp408
g88
I00
S'q=\n\xf7(\xfcD@\x8f\xc2\xf5H\xb8\x1eC@'
p409
tp410
bag78
(g79
(I0
tp411
g81
tp412
Rp413
(I1
(I2
tp414
g88
I00
S'\x8f\xc2\xf5H\xe1\x1aE@\x8f\xc2\xf5H\xb8\x1eC@'
p415
tp416
bag78
(g79
(I0
tp417
g81
tp418
Rp419
(I1
(I2
tp420
g88
I00
S'q=\n\xf7(\xfcD@q=\n\xf7\xff\xffB@'
p421
tp422
bag78
(g79
(I0
tp423
g81
tp424
Rp425
(I1
(I2
tp426
g88
I00
S'\x18\xb6\xa3\xe4\x90\xebD@\xde\x1a\xa7\xd2).D@'
p427
tp428
bag78
(g79
(I0
tp429
g81
tp430
Rp431
(I1
(I2
tp432
g88
I00
S'\xe0\x81,\x02\xac\xd6D@\xd4|\x8f\xd2L\xedC@'
p433
tp434
bag78
(g79
(I0
tp435
g81
tp436
Rp437
(I1
(I2
tp438
g88
I00
S'\xf6\x8ey+-\x9eD@?F\xba\x85\x98\xddC@'
p439
tp440
bag78
(g79
(I0
tp441
g81
tp442
Rp443
(I1
(I2
tp444
g88
I00
S':\xff\xf1P\xd5qD@he\xec\x16Q\x08D@'
p445
tp446
bag78
(g79
(I0
tp447
g81
tp448
Rp449
(I1
(I2
tp450
g88
I00
S'\xbb\xe9\x97\xe5\x06\x8cD@\x1e&\x0b\x90sBD@'
p451
tp452
bag78
(g79
(I0
tp453
g81
tp454
Rp455
(I1
(I2
tp456
g88
I00
S"\xedh\x93|'\xadD@\xb8!F\xac\x07\\D@"
p457
tp458
bag78
(g79
(I0
tp459
g81
tp460
Rp461
(I1
(I2
tp462
g88
I00
S'\x00\x00\x00\xe0zTE@\x00\x00\x00 3\xd3C@'
p463
tp464
bag78
(g79
(I0
tp465
g81
tp466
Rp467
(I1
(I2
tp468
g88
I00
S'\xee\x03\x90\xba\x91\x8aC@a\xa6\xed\xdfm\x1dE@'
p469
tp470
bag78
(g79
(I0
tp471
g81
tp472
Rp473
(I1
(I2
tp474
g88
I00
S't\xef\xe1r\xb0\x8fC@a\xa6\xed\xdfm\x1dE@'
p475
tp476
bag78
(g79
(I0
tp477
g81
tp478
Rp479
(I1
(I2
tp480
g88
I00
S'\xab\xcb)\xe1\xfd\x89C@&N\xee\xf7<\xf8D@'
p481
tp482
bag78
(g79
(I0
tp483
g81
tp484
Rp485
(I1
(I2
tp486
g88
I00
S'1\xb7{\x99\x1c\x8fC@&N\xee\xf7<\xf8D@'
p487
tp488
bag78
(g79
(I0
tp489
g81
tp490
Rp491
(I1
(I2
tp492
g88
I00
S'\x97\x8e\x94h\x18jC@\x1a\xf6{\xe2\xb1\xe6D@'
p493
tp494
bag78
(g79
(I0
tp495
g81
tp496
Rp497
(I1
(I2
tp498
g88
I00
S'\x1dz\xe6 7oC@\x1a\xf6{\xe2\xb1\xe6D@'
p499
tp500
bag78
(g79
(I0
tp501
g81
tp502
Rp503
(I1
(I2
tp504
g88
I00
S'\x86\xc5\xa8K\xbaJC@B\xac\xfe\x88\xd7\xf8D@'
p505
tp506
bag78
(g79
(I0
tp507
g81
tp508
Rp509
(I1
(I2
tp510
g88
I00
S'\x0c\xb1\xfa\x03\xd9OC@B\xac\xfe\x88\xd7\xf8D@'
p511
tp512
bag78
(g79
(I0
tp513
g81
tp514
Rp515
(I1
(I2
tp516
g88
I00
S'L\x18\xcd\xaa\xc3JC@\x01\x12M \x9d\x1dE@'
p517
tp518
bag78
(g79
(I0
tp519
g81
tp520
Rp521
(I1
(I2
tp522
g88
I00
S'\xd2\x03\x1fc\xe2OC@\x01\x12M \x9d\x1dE@'
p523
tp524
bag78
(g79
(I0
tp525
g81
tp526
Rp527
(I1
(I2
tp528
g88
I00
S'\x88\x05\xe7\x01\xdaiC@\xd62\x19\x0e\xfc/E@'
p529
tp530
bag78
(g79
(I0
tp531
g81
tp532
Rp533
(I1
(I2
tp534
g88
I00
S'\x0e\xf18\xba\xf8nC@\xd62\x19\x0e\xfc/E@'
p535
tp536
baa.